target datalayout = "e-m:e-p270:32:32-p271:32:32-p272:64:64-i64:64-i128:128-f80:128-n8:16:32:64-S128"
target triple = "x86_64-unknown-linux-gnu"

%"class.base::internal::JSONParser" = type <{ i32, [4 x i8], ptr, ptr, ptr, i32, i32, i32, i32, i32, i32, i32, [4 x i8] }>

; Function Attrs: mustprogress nounwind uwtable
define linkonce_odr dso_local noundef zeroext i1 @_ZN4base8internal10JSONParser10CanConsumeEi(ptr noundef nonnull align 8 dereferenceable(60) %this, i32 noundef %length) #0 comdat align 2 {
entry:
  %this.addr = alloca ptr, align 8
  %length.addr = alloca i32, align 4
  store ptr %this, ptr %this.addr, align 8
  store i32 %length, ptr %length.addr, align 4
  %this1 = load ptr, ptr %this.addr, align 8
  %pos_ = getelementptr inbounds %"class.base::internal::JSONParser", ptr %this1, i32 0, i32 3
  %0 = load ptr, ptr %pos_, align 8
  %1 = load i32, ptr %length.addr, align 4
  %idx.ext = sext i32 %1 to i64
  %add.ptr = getelementptr inbounds i8, ptr %0, i64 %idx.ext
  %end_pos_ = getelementptr inbounds %"class.base::internal::JSONParser", ptr %this1, i32 0, i32 4
  %2 = load ptr, ptr %end_pos_, align 8
  %cmp = icmp ule ptr %add.ptr, %2
  ret i1 %cmp
}

; Function Attrs: mustprogress uwtable
define dso_local noundef i32 @_ZN4base8internal10JSONParser12GetNextTokenEv(ptr noundef nonnull align 8 dereferenceable(60) %this) #1 align 2 {
entry:
  %retval = alloca i32, align 4
  %this.addr = alloca ptr, align 8
  store ptr %this, ptr %this.addr, align 8
  %this1 = load ptr, ptr %this.addr, align 8
  call void @_ZN4base8internal10JSONParser24EatWhitespaceAndCommentsEv(ptr noundef nonnull align 8 dereferenceable(60) %this1)
  %call = call noundef zeroext i1 @_ZN4base8internal10JSONParser10CanConsumeEi(ptr noundef nonnull align 8 dereferenceable(60) %this1, i32 noundef 1)
  br i1 %call, label %if.end, label %if.then

if.then:                                          ; preds = %entry
  store i32 11, ptr %retval, align 4
  br label %return

if.end:                                           ; preds = %entry
  %pos_ = getelementptr inbounds %"class.base::internal::JSONParser", ptr %this1, i32 0, i32 3
  %0 = load ptr, ptr %pos_, align 8
  %1 = load i8, ptr %0, align 1
  %conv = sext i8 %1 to i32
  switch i32 %conv, label %sw.default [
    i32 123, label %sw.bb
    i32 125, label %sw.bb2
    i32 91, label %sw.bb3
    i32 93, label %sw.bb4
    i32 34, label %sw.bb5
    i32 48, label %sw.bb6
    i32 49, label %sw.bb6
    i32 50, label %sw.bb6
    i32 51, label %sw.bb6
    i32 52, label %sw.bb6
    i32 53, label %sw.bb6
    i32 54, label %sw.bb6
    i32 55, label %sw.bb6
    i32 56, label %sw.bb6
    i32 57, label %sw.bb6
    i32 45, label %sw.bb6
    i32 116, label %sw.bb7
    i32 102, label %sw.bb8
    i32 110, label %sw.bb9
    i32 44, label %sw.bb10
    i32 58, label %sw.bb11
  ]

sw.bb:                                            ; preds = %if.end
  store i32 0, ptr %retval, align 4
  br label %return

sw.bb2:                                           ; preds = %if.end
  store i32 1, ptr %retval, align 4
  br label %return

sw.bb3:                                           ; preds = %if.end
  store i32 2, ptr %retval, align 4
  br label %return

sw.bb4:                                           ; preds = %if.end
  store i32 3, ptr %retval, align 4
  br label %return

sw.bb5:                                           ; preds = %if.end
  store i32 4, ptr %retval, align 4
  br label %return

sw.bb6:                                           ; preds = %if.end, %if.end, %if.end, %if.end, %if.end, %if.end, %if.end, %if.end, %if.end, %if.end, %if.end
  store i32 5, ptr %retval, align 4
  br label %return

sw.bb7:                                           ; preds = %if.end
  store i32 6, ptr %retval, align 4
  br label %return

sw.bb8:                                           ; preds = %if.end
  store i32 7, ptr %retval, align 4
  br label %return

sw.bb9:                                           ; preds = %if.end
  store i32 8, ptr %retval, align 4
  br label %return

sw.bb10:                                          ; preds = %if.end
  store i32 9, ptr %retval, align 4
  br label %return

sw.bb11:                                          ; preds = %if.end
  store i32 10, ptr %retval, align 4
  br label %return

sw.default:                                       ; preds = %if.end
  store i32 12, ptr %retval, align 4
  br label %return

return:                                           ; preds = %sw.default, %sw.bb11, %sw.bb10, %sw.bb9, %sw.bb8, %sw.bb7, %sw.bb6, %sw.bb5, %sw.bb4, %sw.bb3, %sw.bb2, %sw.bb, %if.then
  %2 = load i32, ptr %retval, align 4
  ret i32 %2
}