; Function Attrs: mustprogress nofree norecurse nosync nounwind memory(read, argmem: readwrite, inaccessiblemem: none) uwtable
define dso_local noundef i32 @_ZN4base8internal10JSONParser12GetNextTokenEv(ptr nocapture noundef nonnull align 8 dereferenceable(60) %this) local_unnamed_addr #7 align 2 {
entry:
  tail call void @_ZN4base8internal10JSONParser24EatWhitespaceAndCommentsEv(ptr noundef nonnull align 8 dereferenceable(60) %this)
  %pos_.i = getelementptr inbounds i8, ptr %this, i64 16
  %0 = load ptr, ptr %pos_.i, align 8
  %add.ptr.i = getelementptr inbounds i8, ptr %0, i64 1
  %end_pos_.i = getelementptr inbounds i8, ptr %this, i64 24
  %1 = load ptr, ptr %end_pos_.i, align 8
  %cmp.i.not = icmp ugt ptr %add.ptr.i, %1
  br i1 %cmp.i.not, label %return, label %if.end

if.end:                                           ; preds = %entry
  %2 = load i8, ptr %0, align 1
  switch i8 %2, label %sw.default [
    i8 123, label %return
    i8 125, label %sw.bb2
    i8 91, label %sw.bb3
    i8 93, label %sw.bb4
    i8 34, label %sw.bb5
    i8 48, label %sw.bb6
    i8 49, label %sw.bb6
    i8 50, label %sw.bb6
    i8 51, label %sw.bb6
    i8 52, label %sw.bb6
    i8 53, label %sw.bb6
    i8 54, label %sw.bb6
    i8 55, label %sw.bb6
    i8 56, label %sw.bb6
    i8 57, label %sw.bb6
    i8 45, label %sw.bb6
    i8 116, label %sw.bb7
    i8 102, label %sw.bb8
    i8 110, label %sw.bb9
    i8 44, label %sw.bb10
    i8 58, label %sw.bb11
  ]

sw.bb2:                                           ; preds = %if.end
  br label %return

sw.bb3:                                           ; preds = %if.end
  br label %return

sw.bb4:                                           ; preds = %if.end
  br label %return

sw.bb5:                                           ; preds = %if.end
  br label %return

sw.bb6:                                           ; preds = %if.end, %if.end, %if.end, %if.end, %if.end, %if.end, %if.end, %if.end, %if.end, %if.end, %if.end
  br label %return

sw.bb7:                                           ; preds = %if.end
  br label %return

sw.bb8:                                           ; preds = %if.end
  br label %return

sw.bb9:                                           ; preds = %if.end
  br label %return

sw.bb10:                                          ; preds = %if.end
  br label %return

sw.bb11:                                          ; preds = %if.end
  br label %return

sw.default:                                       ; preds = %if.end
  br label %return

return:                                           ; preds = %if.end, %entry, %sw.default, %sw.bb11, %sw.bb10, %sw.bb9, %sw.bb8, %sw.bb7, %sw.bb6, %sw.bb5, %sw.bb4, %sw.bb3, %sw.bb2
  %retval.0 = phi i32 [ 12, %sw.default ], [ 10, %sw.bb11 ], [ 9, %sw.bb10 ], [ 8, %sw.bb9 ], [ 7, %sw.bb8 ], [ 6, %sw.bb7 ], [ 5, %sw.bb6 ], [ 4, %sw.bb5 ], [ 3, %sw.bb4 ], [ 2, %sw.bb3 ], [ 1, %sw.bb2 ], [ 11, %entry ], [ 0, %if.end ]
  ret i32 %retval.0
}